target datalayout = "e-m:e-p270:32:32-p271:32:32-p272:64:64-i64:64-i128:128-f80:128-n8:16:32:64-S128"
target triple = "x86_64-pc-linux-gnu"

%struct.dt_pthread_mutex_t = type { %union.pthread_mutex_t }
%union.pthread_mutex_t = type { %struct.__pthread_mutex_s }
%struct.__pthread_mutex_s = type { i32, i32, i32, i32, i32, i16, i16, %struct.__pthread_internal_list }
%struct.__pthread_internal_list = type { ptr, ptr }
%struct.dt_dev_pixelpipe_t = type { %struct.dt_dev_pixelpipe_cache_t, i32, i64, ptr, i32, i32, float, i32, i32, [12 x i8], %struct.dt_iop_buffer_dsc_t, ptr, ptr, ptr, ptr, i32, i32, i32, i32, ptr, i64, i32, i32, float, float, float, i64, %struct.dt_pthread_mutex_t, %struct.dt_pthread_mutex_t, %struct.dt_pthread_mutex_t, i32, i32, i32, %struct.dt_dev_detail_mask_t, i32, i32, i32, i32, i32, i32, i32, i32, i32, i32, i32, i32, i32, i32, [8 x i8], %struct.dt_image_t, i32, ptr, i32, ptr, ptr, ptr, i32, ptr, i64, [8 x i8] }
%struct.dt_dev_pixelpipe_cache_t = type { i32, i64, i64, ptr, ptr, ptr, ptr, ptr, ptr, i64, i32, i64, i64, i32, i32, i32 }
%struct.dt_iop_buffer_dsc_t = type { i32, i32, i32, [6 x [6 x i8]], %struct.anon, [12 x i8], %struct.anon.0, [4 x float], i32, [12 x i8] }
%struct.anon = type { i16, i16 }
%struct.anon.0 = type { i32, [12 x i8], [4 x float] }
%struct.dt_dev_detail_mask_t = type { %struct.dt_iop_roi_t, i64, ptr }
%struct.dt_iop_roi_t = type { i32, i32, i32, i32, float }
%struct.dt_image_t = type { i32, i32, float, float, float, float, float, float, float, [64 x i8], [64 x i8], [128 x i8], [64 x i8], [64 x i8], [64 x i8], [64 x i8], i64, i32, %union.dt_image_correction_data_t, [64 x i8], [64 x i8], [64 x i8], [128 x i8], i32, [256 x i8], i32, i32, i32, i32, i32, i32, i32, i32, i32, i32, float, i32, i32, i32, i32, i32, i32, i64, i64, i64, i64, i32, [12 x i8], %struct.dt_iop_buffer_dsc_t, [9 x float], ptr, i32, i32, %struct.dt_image_raw_parameters_t, %struct.dt_image_geoloc_t, %struct._color_harmony_t, i16, [4 x i16], i32, i32, float, float, [4 x float], [4 x [3 x float]], [4 x float], ptr, ptr, i32, i32, [8 x i8] }
%union.dt_image_correction_data_t = type { %struct.anon.2 }
%struct.anon.2 = type { i32, float, [11 x float], [11 x float], [11 x float], [11 x float], [11 x float] }
%struct.dt_image_raw_parameters_t = type { i32 }
%struct.dt_image_geoloc_t = type { double, double, double }
%struct._color_harmony_t = type { i32, i32, i32 }
%struct.dt_dev_pixelpipe_iop_t = type { ptr, ptr, ptr, ptr, i32, i32, %struct.dt_dev_histogram_collection_params_t, ptr, %struct.dt_dev_histogram_stats_t, [4 x i32], float, i32, i32, i64, i32, i32, %struct.dt_iop_roi_t, %struct.dt_iop_roi_t, %struct.dt_iop_roi_t, %struct.dt_iop_roi_t, i32, i32, %struct.dt_iop_buffer_dsc_t, %struct.dt_iop_buffer_dsc_t, ptr, [8 x i8] }
%struct.dt_dev_histogram_collection_params_t = type { ptr, i32 }
%struct.dt_dev_histogram_stats_t = type { i32, i64, i32, i32 }
%struct.dt_iop_module_t = type { i32, ptr, ptr, ptr, ptr, ptr, ptr, ptr, ptr, ptr, ptr, ptr, ptr, ptr, ptr, ptr, ptr, ptr, ptr, ptr, ptr, ptr, ptr, ptr, ptr, ptr, ptr, ptr, ptr, ptr, ptr, ptr, ptr, ptr, ptr, ptr, ptr, ptr, ptr, ptr, ptr, ptr, ptr, ptr, ptr, ptr, ptr, ptr, ptr, ptr, ptr, ptr, ptr, ptr, ptr, ptr, ptr, [20 x i8], i32, i32, i32, i32, i32, i32, i32, [8 x i8], [4 x float], [4 x float], [4 x float], [4 x float], [4 x float], [4 x float], ptr, %struct.dt_dev_histogram_stats_t, [4 x i32], i32, i32, ptr, i32, i32, ptr, ptr, i32, ptr, %struct.dt_pthread_mutex_t, ptr, ptr, ptr, ptr, %struct.anon.5, ptr, ptr, ptr, ptr, ptr, ptr, ptr, i32, ptr, ptr, ptr, ptr, ptr, ptr, ptr, i32, ptr, i32, [128 x i8], i32, ptr, ptr, i32, [12 x i8] }
%struct.anon.5 = type { %struct.anon.6, %struct.anon.7 }
%struct.anon.6 = type { ptr, ptr }
%struct.anon.7 = type { ptr, i32 }
%struct.dt_iop_module_so_t = type { %struct.dt_action_t, ptr, ptr, ptr, ptr, ptr, ptr, ptr, ptr, ptr, ptr, ptr, ptr, ptr, ptr, ptr, ptr, ptr, ptr, ptr, ptr, ptr, ptr, ptr, ptr, ptr, ptr, ptr, ptr, ptr, ptr, ptr, ptr, ptr, ptr, ptr, ptr, ptr, ptr, ptr, ptr, ptr, ptr, ptr, ptr, ptr, ptr, ptr, ptr, ptr, ptr, ptr, ptr, ptr, ptr, ptr, ptr, [20 x i8], ptr, i32, ptr, i32, i32 }
%struct.dt_action_t = type { i32, ptr, ptr, ptr, ptr, ptr }

; Function Attrs: inlinehint nounwind uwtable
define internal i64 @dt_hash(i64 noundef %0, ptr noundef %1, i64 noundef %2) #6 {
  %4 = alloca i64, align 8
  %5 = alloca ptr, align 8
  %6 = alloca i64, align 8
  %7 = alloca ptr, align 8
  %8 = alloca i64, align 8
  store i64 %0, ptr %4, align 8, !tbaa !13
  store ptr %1, ptr %5, align 8, !tbaa !33
  store i64 %2, ptr %6, align 8, !tbaa !13
  call void @llvm.lifetime.start.p0(i64 8, ptr %7) #17
  %9 = load ptr, ptr %5, align 8, !tbaa !33
  store ptr %9, ptr %7, align 8, !tbaa !130
  call void @llvm.lifetime.start.p0(i64 8, ptr %8) #17
  store i64 0, ptr %8, align 8, !tbaa !13
  br label %10

10:                                               ; preds = %26, %3
  %11 = load i64, ptr %8, align 8, !tbaa !13
  %12 = load i64, ptr %6, align 8, !tbaa !13
  %13 = icmp ult i64 %11, %12
  br i1 %13, label %15, label %14

14:                                               ; preds = %10
  call void @llvm.lifetime.end.p0(i64 8, ptr %8) #17
  br label %29

15:                                               ; preds = %10
  %16 = load i64, ptr %4, align 8, !tbaa !13
  %17 = shl i64 %16, 5
  %18 = load i64, ptr %4, align 8, !tbaa !13
  %19 = add i64 %17, %18
  %20 = load ptr, ptr %7, align 8, !tbaa !130
  %21 = load i64, ptr %8, align 8, !tbaa !13
  %22 = getelementptr inbounds nuw i8, ptr %20, i64 %21
  %23 = load i8, ptr %22, align 1, !tbaa !131
  %24 = zext i8 %23 to i64
  %25 = xor i64 %19, %24
  store i64 %25, ptr %4, align 8, !tbaa !13
  br label %26

26:                                               ; preds = %15
  %27 = load i64, ptr %8, align 8, !tbaa !13
  %28 = add i64 %27, 1
  store i64 %28, ptr %8, align 8, !tbaa !13
  br label %10

29:                                               ; preds = %14
  %30 = load i64, ptr %4, align 8, !tbaa !13
  call void @llvm.lifetime.end.p0(i64 8, ptr %7) #17
  ret i64 %30
}

; Function Attrs: inlinehint nounwind uwtable
define internal i64 @_piece_process_hash(ptr noundef %0, ptr noundef %1, ptr noundef %2) #6 {
  %4 = alloca ptr, align 8
  %5 = alloca ptr, align 8
  %6 = alloca ptr, align 8
  %7 = alloca i64, align 8
  store ptr %0, ptr %4, align 8, !tbaa !94
  store ptr %1, ptr %5, align 8, !tbaa !87
  store ptr %2, ptr %6, align 8, !tbaa !103
  call void @llvm.lifetime.start.p0(i64 8, ptr %7) #17
  %8 = load ptr, ptr %4, align 8, !tbaa !94
  %9 = getelementptr inbounds nuw %struct.dt_dev_pixelpipe_iop_t, ptr %8, i32 0, i32 1
  %10 = load ptr, ptr %9, align 8, !tbaa !238
  %11 = getelementptr inbounds nuw %struct.dt_dev_pixelpipe_t, ptr %10, i32 0, i32 49
  %12 = getelementptr inbounds nuw %struct.dt_image_t, ptr %11, i32 0, i32 40
  %13 = load i32, ptr %12, align 8, !tbaa !271
  %14 = load ptr, ptr %5, align 8, !tbaa !87
  %15 = load ptr, ptr %4, align 8, !tbaa !94
  %16 = getelementptr inbounds nuw %struct.dt_dev_pixelpipe_iop_t, ptr %15, i32 0, i32 1
  %17 = load ptr, ptr %16, align 8, !tbaa !238
  %18 = load ptr, ptr %6, align 8, !tbaa !103
  %19 = getelementptr inbounds nuw %struct.dt_iop_module_t, ptr %18, i32 0, i32 59
  %20 = load i32, ptr %19, align 16, !tbaa !104
  %21 = sub nsw i32 %20, 1
  %22 = call i64 @dt_dev_pixelpipe_cache_hash(i32 noundef %13, ptr noundef %14, ptr noundef %17, i32 noundef %21)
  store i64 %22, ptr %7, align 8, !tbaa !13
  %23 = load i64, ptr %7, align 8, !tbaa !13
  %24 = load ptr, ptr %5, align 8, !tbaa !87
  %25 = call i64 @dt_hash(i64 noundef %23, ptr noundef %24, i64 noundef 20)
  store i64 %25, ptr %7, align 8, !tbaa !13
  %26 = load i64, ptr %7, align 8, !tbaa !13
  %27 = load ptr, ptr %6, align 8, !tbaa !103
  %28 = getelementptr inbounds nuw %struct.dt_iop_module_t, ptr %27, i32 0, i32 106
  %29 = load ptr, ptr %28, align 16, !tbaa !258
  %30 = getelementptr inbounds nuw %struct.dt_iop_module_so_t, ptr %29, i32 0, i32 57
  %31 = load ptr, ptr %6, align 8, !tbaa !103
  %32 = getelementptr inbounds nuw %struct.dt_iop_module_t, ptr %31, i32 0, i32 106
  %33 = load ptr, ptr %32, align 16, !tbaa !258
  %34 = getelementptr inbounds nuw %struct.dt_iop_module_so_t, ptr %33, i32 0, i32 57
  %35 = getelementptr inbounds [20 x i8], ptr %34, i64 0, i64 0
  %36 = call i64 @strlen(ptr noundef %35) #20
  %37 = call i64 @dt_hash(i64 noundef %26, ptr noundef %30, i64 noundef %36)
  store i64 %37, ptr %7, align 8, !tbaa !13
  %38 = load i64, ptr %7, align 8, !tbaa !13
  %39 = load ptr, ptr %6, align 8, !tbaa !103
  %40 = getelementptr inbounds nuw %struct.dt_iop_module_t, ptr %39, i32 0, i32 58
  %41 = call i64 @dt_hash(i64 noundef %38, ptr noundef %40, i64 noundef 4)
  store i64 %41, ptr %7, align 8, !tbaa !13
  %42 = load i64, ptr %7, align 8, !tbaa !13
  %43 = load ptr, ptr %6, align 8, !tbaa !103
  %44 = getelementptr inbounds nuw %struct.dt_iop_module_t, ptr %43, i32 0, i32 80
  %45 = load ptr, ptr %44, align 8, !tbaa !357
  %46 = load ptr, ptr %6, align 8, !tbaa !103
  %47 = getelementptr inbounds nuw %struct.dt_iop_module_t, ptr %46, i32 0, i32 82
  %48 = load i32, ptr %47, align 8, !tbaa !358
  %49 = sext i32 %48 to i64
  %50 = call i64 @dt_hash(i64 noundef %42, ptr noundef %45, i64 noundef %49)
  store i64 %50, ptr %7, align 8, !tbaa !13
  %51 = load i64, ptr %7, align 8, !tbaa !13
  call void @llvm.lifetime.end.p0(i64 8, ptr %7) #17
  ret i64 %51
}