; Function Attrs: inlinehint nounwind uwtable
define internal fastcc i64 @_piece_process_hash(ptr readonly captures(none) %.8.val, ptr noundef nonnull readonly captures(none) %0, ptr noundef readonly captures(none) %1) unnamed_addr #18 {
  %3 = getelementptr inbounds nuw i8, ptr %.8.val, i64 2072
  %4 = load i32, ptr %3, align 8, !tbaa !241
  %5 = getelementptr inbounds nuw i8, ptr %1, i64 480
  %6 = load i32, ptr %5, align 16, !tbaa !96
  %7 = add nsw i32 %6, -1
  %8 = tail call i64 @dt_dev_pixelpipe_cache_hash(i32 noundef %4, ptr noundef nonnull %0, ptr noundef %.8.val, i32 noundef %7)
  br label %.lr.ph.i

.lr.ph.i:                                         ; preds = %.lr.ph.i, %2
  %.010.i = phi i64 [ %14, %.lr.ph.i ], [ 0, %2 ]
  %.089.i = phi i64 [ %13, %.lr.ph.i ], [ %8, %2 ]
  %9 = mul i64 %.089.i, 33
  %10 = getelementptr inbounds nuw i8, ptr %0, i64 %.010.i
  %11 = load i8, ptr %10, align 1, !tbaa !84
  %12 = zext i8 %11 to i64
  %13 = xor i64 %9, %12
  %14 = add nuw nsw i64 %.010.i, 1
  %exitcond.not.i = icmp eq i64 %14, 20
  br i1 %exitcond.not.i, label %dt_hash.exit, label %.lr.ph.i

dt_hash.exit:                                     ; preds = %.lr.ph.i
  %15 = getelementptr inbounds nuw i8, ptr %1, i64 944
  %16 = load ptr, ptr %15, align 16, !tbaa !232
  %17 = getelementptr inbounds nuw i8, ptr %16, i64 496
  %18 = tail call i64 @strlen(ptr noundef nonnull dereferenceable(1) %17) #32
  %.not.i = icmp eq i64 %18, 0
  br i1 %.not.i, label %dt_hash.exit18, label %.lr.ph.i14

.lr.ph.i14:                                       ; preds = %dt_hash.exit, %.lr.ph.i14
  %.010.i15 = phi i64 [ %24, %.lr.ph.i14 ], [ 0, %dt_hash.exit ]
  %.089.i16 = phi i64 [ %23, %.lr.ph.i14 ], [ %13, %dt_hash.exit ]
  %19 = mul i64 %.089.i16, 33
  %20 = getelementptr inbounds nuw i8, ptr %17, i64 %.010.i15
  %21 = load i8, ptr %20, align 1, !tbaa !84
  %22 = zext i8 %21 to i64
  %23 = xor i64 %19, %22
  %24 = add nuw i64 %.010.i15, 1
  %exitcond.not.i17 = icmp eq i64 %24, %18
  br i1 %exitcond.not.i17, label %dt_hash.exit18, label %.lr.ph.i14

dt_hash.exit18:                                   ; preds = %.lr.ph.i14, %dt_hash.exit
  %.08.lcssa.i = phi i64 [ %13, %dt_hash.exit ], [ %23, %.lr.ph.i14 ]
  %25 = getelementptr inbounds nuw i8, ptr %1, i64 476
  br label %.lr.ph.i19

.lr.ph.i19:                                       ; preds = %.lr.ph.i19, %dt_hash.exit18
  %.010.i20 = phi i64 [ %31, %.lr.ph.i19 ], [ 0, %dt_hash.exit18 ]
  %.089.i21 = phi i64 [ %30, %.lr.ph.i19 ], [ %.08.lcssa.i, %dt_hash.exit18 ]
  %26 = mul i64 %.089.i21, 33
  %27 = getelementptr inbounds nuw i8, ptr %25, i64 %.010.i20
  %28 = load i8, ptr %27, align 1, !tbaa !84
  %29 = zext i8 %28 to i64
  %30 = xor i64 %26, %29
  %31 = add nuw nsw i64 %.010.i20, 1
  %exitcond.not.i22 = icmp eq i64 %31, 4
  br i1 %exitcond.not.i22, label %dt_hash.exit24, label %.lr.ph.i19

dt_hash.exit24:                                   ; preds = %.lr.ph.i19
  %32 = getelementptr inbounds nuw i8, ptr %1, i64 680
  %33 = load ptr, ptr %32, align 8, !tbaa !330
  %34 = getelementptr inbounds nuw i8, ptr %1, i64 696
  %35 = load i32, ptr %34, align 8, !tbaa !331
  %36 = sext i32 %35 to i64
  %.not.i25 = icmp eq i32 %35, 0
  br i1 %.not.i25, label %dt_hash.exit31, label %.lr.ph.i26

.lr.ph.i26:                                       ; preds = %dt_hash.exit24, %.lr.ph.i26
  %.010.i27 = phi i64 [ %42, %.lr.ph.i26 ], [ 0, %dt_hash.exit24 ]
  %.089.i28 = phi i64 [ %41, %.lr.ph.i26 ], [ %30, %dt_hash.exit24 ]
  %37 = mul i64 %.089.i28, 33
  %38 = getelementptr inbounds nuw i8, ptr %33, i64 %.010.i27
  %39 = load i8, ptr %38, align 1, !tbaa !84
  %40 = zext i8 %39 to i64
  %41 = xor i64 %37, %40
  %42 = add nuw i64 %.010.i27, 1
  %exitcond.not.i29 = icmp eq i64 %42, %36
  br i1 %exitcond.not.i29, label %dt_hash.exit31, label %.lr.ph.i26

dt_hash.exit31:                                   ; preds = %.lr.ph.i26, %dt_hash.exit24
  %.08.lcssa.i30 = phi i64 [ %30, %dt_hash.exit24 ], [ %41, %.lr.ph.i26 ]
  ret i64 %.08.lcssa.i30
}